target datalayout = "e-m:e-p270:32:32-p271:32:32-p272:64:64-i64:64-i128:128-f80:128-n8:16:32:64-S128"
target triple = "x86_64-pc-linux-gnu"

@.str.17 = private unnamed_addr constant [25 x i8] c"../openssl/test/bntest.c\00", align 1
@.str.69 = private unnamed_addr constant [2 x i8] c"0\00", align 1
@__const.test_bin2bn_lengths.input = private unnamed_addr constant [2 x i8] c"\01\02", align 1
@.str.316 = private unnamed_addr constant [17 x i8] c"bn_be = BN_new()\00", align 1
@.str.317 = private unnamed_addr constant [26 x i8] c"bn_expected_be = BN_new()\00", align 1
@.str.318 = private unnamed_addr constant [35 x i8] c"BN_set_word(bn_expected_be, 0x102)\00", align 1
@.str.319 = private unnamed_addr constant [17 x i8] c"bn_le = BN_new()\00", align 1
@.str.320 = private unnamed_addr constant [26 x i8] c"bn_expected_le = BN_new()\00", align 1
@.str.321 = private unnamed_addr constant [35 x i8] c"BN_set_word(bn_expected_le, 0x201)\00", align 1
@.str.322 = private unnamed_addr constant [28 x i8] c"BN_bin2bn(input, -1, bn_be)\00", align 1
@.str.323 = private unnamed_addr constant [27 x i8] c"BN_bin2bn(input, 0, bn_be)\00", align 1
@.str.324 = private unnamed_addr constant [18 x i8] c"BN_is_zero(bn_be)\00", align 1
@.str.325 = private unnamed_addr constant [27 x i8] c"BN_bin2bn(input, 2, bn_be)\00", align 1
@.str.326 = private unnamed_addr constant [30 x i8] c"BN_cmp(bn_be, bn_expected_be)\00", align 1
@.str.327 = private unnamed_addr constant [35 x i8] c"BN_signed_bin2bn(input, -1, bn_be)\00", align 1
@.str.328 = private unnamed_addr constant [34 x i8] c"BN_signed_bin2bn(input, 0, bn_be)\00", align 1
@.str.329 = private unnamed_addr constant [34 x i8] c"BN_signed_bin2bn(input, 2, bn_be)\00", align 1
@.str.330 = private unnamed_addr constant [30 x i8] c"BN_lebin2bn(input, -1, bn_le)\00", align 1
@.str.331 = private unnamed_addr constant [29 x i8] c"BN_lebin2bn(input, 0, bn_le)\00", align 1
@.str.332 = private unnamed_addr constant [18 x i8] c"BN_is_zero(bn_le)\00", align 1
@.str.333 = private unnamed_addr constant [29 x i8] c"BN_lebin2bn(input, 2, bn_le)\00", align 1
@.str.334 = private unnamed_addr constant [30 x i8] c"BN_cmp(bn_le, bn_expected_le)\00", align 1
@.str.335 = private unnamed_addr constant [37 x i8] c"BN_signed_lebin2bn(input, -1, bn_le)\00", align 1
@.str.336 = private unnamed_addr constant [36 x i8] c"BN_signed_lebin2bn(input, 0, bn_le)\00", align 1
@.str.337 = private unnamed_addr constant [36 x i8] c"BN_signed_lebin2bn(input, 2, bn_le)\00", align 1

; Function Attrs: nounwind uwtable
define internal i32 @test_bin2bn_lengths() #0 {
  %1 = alloca [2 x i8], align 1
  %2 = alloca ptr, align 8
  %3 = alloca ptr, align 8
  %4 = alloca ptr, align 8
  %5 = alloca ptr, align 8
  %6 = alloca i32, align 4
  call void @llvm.lifetime.start.p0(i64 2, ptr %1) #7
  call void @llvm.memcpy.p0.p0.i64(ptr align 1 %1, ptr align 1 @__const.test_bin2bn_lengths.input, i64 2, i1 false)
  call void @llvm.lifetime.start.p0(i64 8, ptr %2) #7
  store ptr null, ptr %2, align 8, !tbaa !13
  call void @llvm.lifetime.start.p0(i64 8, ptr %3) #7
  store ptr null, ptr %3, align 8, !tbaa !13
  call void @llvm.lifetime.start.p0(i64 8, ptr %4) #7
  store ptr null, ptr %4, align 8, !tbaa !13
  call void @llvm.lifetime.start.p0(i64 8, ptr %5) #7
  store ptr null, ptr %5, align 8, !tbaa !13
  call void @llvm.lifetime.start.p0(i64 4, ptr %6) #7
  store i32 0, ptr %6, align 4, !tbaa !4
  %7 = call ptr @BN_new()
  store ptr %7, ptr %2, align 8, !tbaa !13
  %8 = call i32 @test_ptr(ptr noundef @.str.17, i32 noundef 2267, ptr noundef @.str.316, ptr noundef %7)
  %9 = icmp ne i32 %8, 0
  br i1 %9, label %10, label %36

10:                                               ; preds = %0
  %11 = call ptr @BN_new()
  store ptr %11, ptr %3, align 8, !tbaa !13
  %12 = call i32 @test_ptr(ptr noundef @.str.17, i32 noundef 2268, ptr noundef @.str.317, ptr noundef %11)
  %13 = icmp ne i32 %12, 0
  br i1 %13, label %14, label %36

14:                                               ; preds = %10
  %15 = load ptr, ptr %3, align 8, !tbaa !13
  %16 = call i32 @BN_set_word(ptr noundef %15, i64 noundef 258)
  %17 = icmp ne i32 %16, 0
  %18 = zext i1 %17 to i32
  %19 = call i32 @test_true(ptr noundef @.str.17, i32 noundef 2269, ptr noundef @.str.318, i32 noundef %18)
  %20 = icmp ne i32 %19, 0
  br i1 %20, label %21, label %36

21:                                               ; preds = %14
  %22 = call ptr @BN_new()
  store ptr %22, ptr %4, align 8, !tbaa !13
  %23 = call i32 @test_ptr(ptr noundef @.str.17, i32 noundef 2270, ptr noundef @.str.319, ptr noundef %22)
  %24 = icmp ne i32 %23, 0
  br i1 %24, label %25, label %36

25:                                               ; preds = %21
  %26 = call ptr @BN_new()
  store ptr %26, ptr %5, align 8, !tbaa !13
  %27 = call i32 @test_ptr(ptr noundef @.str.17, i32 noundef 2271, ptr noundef @.str.320, ptr noundef %26)
  %28 = icmp ne i32 %27, 0
  br i1 %28, label %29, label %36

29:                                               ; preds = %25
  %30 = load ptr, ptr %5, align 8, !tbaa !13
  %31 = call i32 @BN_set_word(ptr noundef %30, i64 noundef 513)
  %32 = icmp ne i32 %31, 0
  %33 = zext i1 %32 to i32
  %34 = call i32 @test_true(ptr noundef @.str.17, i32 noundef 2272, ptr noundef @.str.321, i32 noundef %33)
  %35 = icmp ne i32 %34, 0
  br i1 %35, label %37, label %36

36:                                               ; preds = %29, %25, %21, %14, %10, %0
  br label %166

37:                                               ; preds = %29
  %38 = getelementptr inbounds [2 x i8], ptr %1, i64 0, i64 0
  %39 = load ptr, ptr %2, align 8, !tbaa !13
  %40 = call ptr @BN_bin2bn(ptr noundef %38, i32 noundef -1, ptr noundef %39)
  %41 = call i32 @test_ptr_null(ptr noundef @.str.17, i32 noundef 2283, ptr noundef @.str.322, ptr noundef %40)
  %42 = icmp ne i32 %41, 0
  br i1 %42, label %43, label %68

43:                                               ; preds = %37
  %44 = getelementptr inbounds [2 x i8], ptr %1, i64 0, i64 0
  %45 = load ptr, ptr %2, align 8, !tbaa !13
  %46 = call ptr @BN_bin2bn(ptr noundef %44, i32 noundef 0, ptr noundef %45)
  %47 = call i32 @test_ptr(ptr noundef @.str.17, i32 noundef 2283, ptr noundef @.str.323, ptr noundef %46)
  %48 = icmp ne i32 %47, 0
  br i1 %48, label %49, label %68

49:                                               ; preds = %43
  %50 = load ptr, ptr %2, align 8, !tbaa !13
  %51 = call i32 @BN_is_zero(ptr noundef %50)
  %52 = icmp ne i32 %51, 0
  %53 = zext i1 %52 to i32
  %54 = call i32 @test_true(ptr noundef @.str.17, i32 noundef 2283, ptr noundef @.str.324, i32 noundef %53)
  %55 = icmp ne i32 %54, 0
  br i1 %55, label %56, label %68

56:                                               ; preds = %49
  %57 = getelementptr inbounds [2 x i8], ptr %1, i64 0, i64 0
  %58 = load ptr, ptr %2, align 8, !tbaa !13
  %59 = call ptr @BN_bin2bn(ptr noundef %57, i32 noundef 2, ptr noundef %58)
  %60 = call i32 @test_ptr(ptr noundef @.str.17, i32 noundef 2283, ptr noundef @.str.325, ptr noundef %59)
  %61 = icmp ne i32 %60, 0
  br i1 %61, label %62, label %68

62:                                               ; preds = %56
  %63 = load ptr, ptr %2, align 8, !tbaa !13
  %64 = load ptr, ptr %3, align 8, !tbaa !13
  %65 = call i32 @BN_cmp(ptr noundef %63, ptr noundef %64)
  %66 = call i32 @test_int_eq(ptr noundef @.str.17, i32 noundef 2283, ptr noundef @.str.326, ptr noundef @.str.69, i32 noundef %65, i32 noundef 0)
  %67 = icmp ne i32 %66, 0
  br i1 %67, label %69, label %68

68:                                               ; preds = %62, %56, %49, %43, %37
  br label %166

69:                                               ; preds = %62
  %70 = getelementptr inbounds [2 x i8], ptr %1, i64 0, i64 0
  %71 = load ptr, ptr %2, align 8, !tbaa !13
  %72 = call ptr @BN_signed_bin2bn(ptr noundef %70, i32 noundef -1, ptr noundef %71)
  %73 = call i32 @test_ptr_null(ptr noundef @.str.17, i32 noundef 2284, ptr noundef @.str.327, ptr noundef %72)
  %74 = icmp ne i32 %73, 0
  br i1 %74, label %75, label %100

75:                                               ; preds = %69
  %76 = getelementptr inbounds [2 x i8], ptr %1, i64 0, i64 0
  %77 = load ptr, ptr %2, align 8, !tbaa !13
  %78 = call ptr @BN_signed_bin2bn(ptr noundef %76, i32 noundef 0, ptr noundef %77)
  %79 = call i32 @test_ptr(ptr noundef @.str.17, i32 noundef 2284, ptr noundef @.str.328, ptr noundef %78)
  %80 = icmp ne i32 %79, 0
  br i1 %80, label %81, label %100

81:                                               ; preds = %75
  %82 = load ptr, ptr %2, align 8, !tbaa !13
  %83 = call i32 @BN_is_zero(ptr noundef %82)
  %84 = icmp ne i32 %83, 0
  %85 = zext i1 %84 to i32
  %86 = call i32 @test_true(ptr noundef @.str.17, i32 noundef 2284, ptr noundef @.str.324, i32 noundef %85)
  %87 = icmp ne i32 %86, 0
  br i1 %87, label %88, label %100

88:                                               ; preds = %81
  %89 = getelementptr inbounds [2 x i8], ptr %1, i64 0, i64 0
  %90 = load ptr, ptr %2, align 8, !tbaa !13
  %91 = call ptr @BN_signed_bin2bn(ptr noundef %89, i32 noundef 2, ptr noundef %90)
  %92 = call i32 @test_ptr(ptr noundef @.str.17, i32 noundef 2284, ptr noundef @.str.329, ptr noundef %91)
  %93 = icmp ne i32 %92, 0
  br i1 %93, label %94, label %100

94:                                               ; preds = %88
  %95 = load ptr, ptr %2, align 8, !tbaa !13
  %96 = load ptr, ptr %3, align 8, !tbaa !13
  %97 = call i32 @BN_cmp(ptr noundef %95, ptr noundef %96)
  %98 = call i32 @test_int_eq(ptr noundef @.str.17, i32 noundef 2284, ptr noundef @.str.326, ptr noundef @.str.69, i32 noundef %97, i32 noundef 0)
  %99 = icmp ne i32 %98, 0
  br i1 %99, label %101, label %100

100:                                              ; preds = %94, %88, %81, %75, %69
  br label %166

101:                                              ; preds = %94
  %102 = getelementptr inbounds [2 x i8], ptr %1, i64 0, i64 0
  %103 = load ptr, ptr %4, align 8, !tbaa !13
  %104 = call ptr @BN_lebin2bn(ptr noundef %102, i32 noundef -1, ptr noundef %103)
  %105 = call i32 @test_ptr_null(ptr noundef @.str.17, i32 noundef 2285, ptr noundef @.str.330, ptr noundef %104)
  %106 = icmp ne i32 %105, 0
  br i1 %106, label %107, label %132

107:                                              ; preds = %101
  %108 = getelementptr inbounds [2 x i8], ptr %1, i64 0, i64 0
  %109 = load ptr, ptr %4, align 8, !tbaa !13
  %110 = call ptr @BN_lebin2bn(ptr noundef %108, i32 noundef 0, ptr noundef %109)
  %111 = call i32 @test_ptr(ptr noundef @.str.17, i32 noundef 2285, ptr noundef @.str.331, ptr noundef %110)
  %112 = icmp ne i32 %111, 0
  br i1 %112, label %113, label %132

113:                                              ; preds = %107
  %114 = load ptr, ptr %4, align 8, !tbaa !13
  %115 = call i32 @BN_is_zero(ptr noundef %114)
  %116 = icmp ne i32 %115, 0
  %117 = zext i1 %116 to i32
  %118 = call i32 @test_true(ptr noundef @.str.17, i32 noundef 2285, ptr noundef @.str.332, i32 noundef %117)
  %119 = icmp ne i32 %118, 0
  br i1 %119, label %120, label %132

120:                                              ; preds = %113
  %121 = getelementptr inbounds [2 x i8], ptr %1, i64 0, i64 0
  %122 = load ptr, ptr %4, align 8, !tbaa !13
  %123 = call ptr @BN_lebin2bn(ptr noundef %121, i32 noundef 2, ptr noundef %122)
  %124 = call i32 @test_ptr(ptr noundef @.str.17, i32 noundef 2285, ptr noundef @.str.333, ptr noundef %123)
  %125 = icmp ne i32 %124, 0
  br i1 %125, label %126, label %132

126:                                              ; preds = %120
  %127 = load ptr, ptr %4, align 8, !tbaa !13
  %128 = load ptr, ptr %5, align 8, !tbaa !13
  %129 = call i32 @BN_cmp(ptr noundef %127, ptr noundef %128)
  %130 = call i32 @test_int_eq(ptr noundef @.str.17, i32 noundef 2285, ptr noundef @.str.334, ptr noundef @.str.69, i32 noundef %129, i32 noundef 0)
  %131 = icmp ne i32 %130, 0
  br i1 %131, label %133, label %132

132:                                              ; preds = %126, %120, %113, %107, %101
  br label %166

133:                                              ; preds = %126
  %134 = getelementptr inbounds [2 x i8], ptr %1, i64 0, i64 0
  %135 = load ptr, ptr %4, align 8, !tbaa !13
  %136 = call ptr @BN_signed_lebin2bn(ptr noundef %134, i32 noundef -1, ptr noundef %135)
  %137 = call i32 @test_ptr_null(ptr noundef @.str.17, i32 noundef 2286, ptr noundef @.str.335, ptr noundef %136)
  %138 = icmp ne i32 %137, 0
  br i1 %138, label %139, label %164

139:                                              ; preds = %133
  %140 = getelementptr inbounds [2 x i8], ptr %1, i64 0, i64 0
  %141 = load ptr, ptr %4, align 8, !tbaa !13
  %142 = call ptr @BN_signed_lebin2bn(ptr noundef %140, i32 noundef 0, ptr noundef %141)
  %143 = call i32 @test_ptr(ptr noundef @.str.17, i32 noundef 2286, ptr noundef @.str.336, ptr noundef %142)
  %144 = icmp ne i32 %143, 0
  br i1 %144, label %145, label %164

145:                                              ; preds = %139
  %146 = load ptr, ptr %4, align 8, !tbaa !13
  %147 = call i32 @BN_is_zero(ptr noundef %146)
  %148 = icmp ne i32 %147, 0
  %149 = zext i1 %148 to i32
  %150 = call i32 @test_true(ptr noundef @.str.17, i32 noundef 2286, ptr noundef @.str.332, i32 noundef %149)
  %151 = icmp ne i32 %150, 0
  br i1 %151, label %152, label %164

152:                                              ; preds = %145
  %153 = getelementptr inbounds [2 x i8], ptr %1, i64 0, i64 0
  %154 = load ptr, ptr %4, align 8, !tbaa !13
  %155 = call ptr @BN_signed_lebin2bn(ptr noundef %153, i32 noundef 2, ptr noundef %154)
  %156 = call i32 @test_ptr(ptr noundef @.str.17, i32 noundef 2286, ptr noundef @.str.337, ptr noundef %155)
  %157 = icmp ne i32 %156, 0
  br i1 %157, label %158, label %164

158:                                              ; preds = %152
  %159 = load ptr, ptr %4, align 8, !tbaa !13
  %160 = load ptr, ptr %5, align 8, !tbaa !13
  %161 = call i32 @BN_cmp(ptr noundef %159, ptr noundef %160)
  %162 = call i32 @test_int_eq(ptr noundef @.str.17, i32 noundef 2286, ptr noundef @.str.334, ptr noundef @.str.69, i32 noundef %161, i32 noundef 0)
  %163 = icmp ne i32 %162, 0
  br i1 %163, label %165, label %164

164:                                              ; preds = %158, %152, %145, %139, %133
  br label %166

165:                                              ; preds = %158
  store i32 1, ptr %6, align 4, !tbaa !4
  br label %166

166:                                              ; preds = %165, %164, %132, %100, %68, %36
  %167 = load ptr, ptr %2, align 8, !tbaa !13
  call void @BN_free(ptr noundef %167)
  %168 = load ptr, ptr %3, align 8, !tbaa !13
  call void @BN_free(ptr noundef %168)
  %169 = load ptr, ptr %4, align 8, !tbaa !13
  call void @BN_free(ptr noundef %169)
  %170 = load ptr, ptr %5, align 8, !tbaa !13
  call void @BN_free(ptr noundef %170)
  %171 = load i32, ptr %6, align 4, !tbaa !4
  call void @llvm.lifetime.end.p0(i64 4, ptr %6) #7
  call void @llvm.lifetime.end.p0(i64 8, ptr %5) #7
  call void @llvm.lifetime.end.p0(i64 8, ptr %4) #7
  call void @llvm.lifetime.end.p0(i64 8, ptr %3) #7
  call void @llvm.lifetime.end.p0(i64 8, ptr %2) #7
  call void @llvm.lifetime.end.p0(i64 2, ptr %1) #7
  ret i32 %171
}