; Function Attrs: nounwind uwtable
define internal range(i32 0, 2) i32 @test_bin2bn_lengths() #1 {
  %1 = alloca [2 x i8], align 2
  call void @llvm.lifetime.start.p0(i64 2, ptr nonnull %1) #8
  store i16 513, ptr %1, align 2
  %2 = tail call ptr @BN_new() #8
  %3 = tail call i32 @test_ptr(ptr noundef nonnull @.str.17, i32 noundef 2267, ptr noundef nonnull @.str.316, ptr noundef %2) #8
  %.not = icmp eq i32 %3, 0
  br i1 %.not, label %91, label %4

4:                                                ; preds = %0
  %5 = tail call ptr @BN_new() #8
  %6 = tail call i32 @test_ptr(ptr noundef nonnull @.str.17, i32 noundef 2268, ptr noundef nonnull @.str.317, ptr noundef %5) #8
  %.not33 = icmp eq i32 %6, 0
  br i1 %.not33, label %91, label %7

7:                                                ; preds = %4
  %8 = tail call i32 @BN_set_word(ptr noundef %5, i64 noundef 258) #8
  %9 = icmp ne i32 %8, 0
  %10 = zext i1 %9 to i32
  %11 = tail call i32 @test_true(ptr noundef nonnull @.str.17, i32 noundef 2269, ptr noundef nonnull @.str.318, i32 noundef %10) #8
  %.not34 = icmp eq i32 %11, 0
  br i1 %.not34, label %91, label %12

12:                                               ; preds = %7
  %13 = tail call ptr @BN_new() #8
  %14 = tail call i32 @test_ptr(ptr noundef nonnull @.str.17, i32 noundef 2270, ptr noundef nonnull @.str.319, ptr noundef %13) #8
  %.not35 = icmp eq i32 %14, 0
  br i1 %.not35, label %91, label %15

15:                                               ; preds = %12
  %16 = tail call ptr @BN_new() #8
  %17 = tail call i32 @test_ptr(ptr noundef nonnull @.str.17, i32 noundef 2271, ptr noundef nonnull @.str.320, ptr noundef %16) #8
  %.not36 = icmp eq i32 %17, 0
  br i1 %.not36, label %91, label %18

18:                                               ; preds = %15
  %19 = tail call i32 @BN_set_word(ptr noundef %16, i64 noundef 513) #8
  %20 = icmp ne i32 %19, 0
  %21 = zext i1 %20 to i32
  %22 = tail call i32 @test_true(ptr noundef nonnull @.str.17, i32 noundef 2272, ptr noundef nonnull @.str.321, i32 noundef %21) #8
  %.not37 = icmp eq i32 %22, 0
  br i1 %.not37, label %91, label %23

23:                                               ; preds = %18
  %24 = call ptr @BN_bin2bn(ptr noundef nonnull %1, i32 noundef -1, ptr noundef %2) #8
  %25 = call i32 @test_ptr_null(ptr noundef nonnull @.str.17, i32 noundef 2283, ptr noundef nonnull @.str.322, ptr noundef %24) #8
  %.not38 = icmp eq i32 %25, 0
  br i1 %.not38, label %91, label %26

26:                                               ; preds = %23
  %27 = call ptr @BN_bin2bn(ptr noundef nonnull %1, i32 noundef 0, ptr noundef %2) #8
  %28 = call i32 @test_ptr(ptr noundef nonnull @.str.17, i32 noundef 2283, ptr noundef nonnull @.str.323, ptr noundef %27) #8
  %.not39 = icmp eq i32 %28, 0
  br i1 %.not39, label %91, label %29

29:                                               ; preds = %26
  %30 = call i32 @BN_is_zero(ptr noundef %2) #8
  %31 = icmp ne i32 %30, 0
  %32 = zext i1 %31 to i32
  %33 = call i32 @test_true(ptr noundef nonnull @.str.17, i32 noundef 2283, ptr noundef nonnull @.str.324, i32 noundef %32) #8
  %.not40 = icmp eq i32 %33, 0
  br i1 %.not40, label %91, label %34

34:                                               ; preds = %29
  %35 = call ptr @BN_bin2bn(ptr noundef nonnull %1, i32 noundef 2, ptr noundef %2) #8
  %36 = call i32 @test_ptr(ptr noundef nonnull @.str.17, i32 noundef 2283, ptr noundef nonnull @.str.325, ptr noundef %35) #8
  %.not41 = icmp eq i32 %36, 0
  br i1 %.not41, label %91, label %37

37:                                               ; preds = %34
  %38 = call i32 @BN_cmp(ptr noundef %2, ptr noundef %5) #8
  %39 = call i32 @test_int_eq(ptr noundef nonnull @.str.17, i32 noundef 2283, ptr noundef nonnull @.str.326, ptr noundef nonnull @.str.69, i32 noundef %38, i32 noundef 0) #8
  %.not42 = icmp eq i32 %39, 0
  br i1 %.not42, label %91, label %40

40:                                               ; preds = %37
  %41 = call ptr @BN_signed_bin2bn(ptr noundef nonnull %1, i32 noundef -1, ptr noundef %2) #8
  %42 = call i32 @test_ptr_null(ptr noundef nonnull @.str.17, i32 noundef 2284, ptr noundef nonnull @.str.327, ptr noundef %41) #8
  %.not43 = icmp eq i32 %42, 0
  br i1 %.not43, label %91, label %43

43:                                               ; preds = %40
  %44 = call ptr @BN_signed_bin2bn(ptr noundef nonnull %1, i32 noundef 0, ptr noundef %2) #8
  %45 = call i32 @test_ptr(ptr noundef nonnull @.str.17, i32 noundef 2284, ptr noundef nonnull @.str.328, ptr noundef %44) #8
  %.not44 = icmp eq i32 %45, 0
  br i1 %.not44, label %91, label %46

46:                                               ; preds = %43
  %47 = call i32 @BN_is_zero(ptr noundef %2) #8
  %48 = icmp ne i32 %47, 0
  %49 = zext i1 %48 to i32
  %50 = call i32 @test_true(ptr noundef nonnull @.str.17, i32 noundef 2284, ptr noundef nonnull @.str.324, i32 noundef %49) #8
  %.not45 = icmp eq i32 %50, 0
  br i1 %.not45, label %91, label %51

51:                                               ; preds = %46
  %52 = call ptr @BN_signed_bin2bn(ptr noundef nonnull %1, i32 noundef 2, ptr noundef %2) #8
  %53 = call i32 @test_ptr(ptr noundef nonnull @.str.17, i32 noundef 2284, ptr noundef nonnull @.str.329, ptr noundef %52) #8
  %.not46 = icmp eq i32 %53, 0
  br i1 %.not46, label %91, label %54

54:                                               ; preds = %51
  %55 = call i32 @BN_cmp(ptr noundef %2, ptr noundef %5) #8
  %56 = call i32 @test_int_eq(ptr noundef nonnull @.str.17, i32 noundef 2284, ptr noundef nonnull @.str.326, ptr noundef nonnull @.str.69, i32 noundef %55, i32 noundef 0) #8
  %.not47 = icmp eq i32 %56, 0
  br i1 %.not47, label %91, label %57

57:                                               ; preds = %54
  %58 = call ptr @BN_lebin2bn(ptr noundef nonnull %1, i32 noundef -1, ptr noundef %13) #8
  %59 = call i32 @test_ptr_null(ptr noundef nonnull @.str.17, i32 noundef 2285, ptr noundef nonnull @.str.330, ptr noundef %58) #8
  %.not48 = icmp eq i32 %59, 0
  br i1 %.not48, label %91, label %60

60:                                               ; preds = %57
  %61 = call ptr @BN_lebin2bn(ptr noundef nonnull %1, i32 noundef 0, ptr noundef %13) #8
  %62 = call i32 @test_ptr(ptr noundef nonnull @.str.17, i32 noundef 2285, ptr noundef nonnull @.str.331, ptr noundef %61) #8
  %.not49 = icmp eq i32 %62, 0
  br i1 %.not49, label %91, label %63

63:                                               ; preds = %60
  %64 = call i32 @BN_is_zero(ptr noundef %13) #8
  %65 = icmp ne i32 %64, 0
  %66 = zext i1 %65 to i32
  %67 = call i32 @test_true(ptr noundef nonnull @.str.17, i32 noundef 2285, ptr noundef nonnull @.str.332, i32 noundef %66) #8
  %.not50 = icmp eq i32 %67, 0
  br i1 %.not50, label %91, label %68

68:                                               ; preds = %63
  %69 = call ptr @BN_lebin2bn(ptr noundef nonnull %1, i32 noundef 2, ptr noundef %13) #8
  %70 = call i32 @test_ptr(ptr noundef nonnull @.str.17, i32 noundef 2285, ptr noundef nonnull @.str.333, ptr noundef %69) #8
  %.not51 = icmp eq i32 %70, 0
  br i1 %.not51, label %91, label %71

71:                                               ; preds = %68
  %72 = call i32 @BN_cmp(ptr noundef %13, ptr noundef %16) #8
  %73 = call i32 @test_int_eq(ptr noundef nonnull @.str.17, i32 noundef 2285, ptr noundef nonnull @.str.334, ptr noundef nonnull @.str.69, i32 noundef %72, i32 noundef 0) #8
  %.not52 = icmp eq i32 %73, 0
  br i1 %.not52, label %91, label %74

74:                                               ; preds = %71
  %75 = call ptr @BN_signed_lebin2bn(ptr noundef nonnull %1, i32 noundef -1, ptr noundef %13) #8
  %76 = call i32 @test_ptr_null(ptr noundef nonnull @.str.17, i32 noundef 2286, ptr noundef nonnull @.str.335, ptr noundef %75) #8
  %.not53 = icmp eq i32 %76, 0
  br i1 %.not53, label %91, label %77

77:                                               ; preds = %74
  %78 = call ptr @BN_signed_lebin2bn(ptr noundef nonnull %1, i32 noundef 0, ptr noundef %13) #8
  %79 = call i32 @test_ptr(ptr noundef nonnull @.str.17, i32 noundef 2286, ptr noundef nonnull @.str.336, ptr noundef %78) #8
  %.not54 = icmp eq i32 %79, 0
  br i1 %.not54, label %91, label %80

80:                                               ; preds = %77
  %81 = call i32 @BN_is_zero(ptr noundef %13) #8
  %82 = icmp ne i32 %81, 0
  %83 = zext i1 %82 to i32
  %84 = call i32 @test_true(ptr noundef nonnull @.str.17, i32 noundef 2286, ptr noundef nonnull @.str.332, i32 noundef %83) #8
  %.not55 = icmp eq i32 %84, 0
  br i1 %.not55, label %91, label %85

85:                                               ; preds = %80
  %86 = call ptr @BN_signed_lebin2bn(ptr noundef nonnull %1, i32 noundef 2, ptr noundef %13) #8
  %87 = call i32 @test_ptr(ptr noundef nonnull @.str.17, i32 noundef 2286, ptr noundef nonnull @.str.337, ptr noundef %86) #8
  %.not56 = icmp eq i32 %87, 0
  br i1 %.not56, label %91, label %88

88:                                               ; preds = %85
  %89 = call i32 @BN_cmp(ptr noundef %13, ptr noundef %16) #8
  %90 = call i32 @test_int_eq(ptr noundef nonnull @.str.17, i32 noundef 2286, ptr noundef nonnull @.str.334, ptr noundef nonnull @.str.69, i32 noundef %89, i32 noundef 0) #8
  %.not57 = icmp ne i32 %90, 0
  %spec.select = zext i1 %.not57 to i32
  br label %91

91:                                               ; preds = %88, %74, %77, %80, %85, %57, %60, %63, %68, %71, %40, %43, %46, %51, %54, %23, %26, %29, %34, %37, %0, %4, %7, %12, %15, %18
  %.032 = phi ptr [ %5, %85 ], [ %5, %80 ], [ %5, %77 ], [ %5, %74 ], [ %5, %71 ], [ %5, %68 ], [ %5, %63 ], [ %5, %60 ], [ %5, %57 ], [ %5, %54 ], [ %5, %51 ], [ %5, %46 ], [ %5, %43 ], [ %5, %40 ], [ %5, %37 ], [ %5, %34 ], [ %5, %29 ], [ %5, %26 ], [ %5, %23 ], [ %5, %18 ], [ %5, %15 ], [ %5, %12 ], [ %5, %7 ], [ %5, %4 ], [ null, %0 ], [ %5, %88 ]
  %.031 = phi ptr [ %13, %85 ], [ %13, %80 ], [ %13, %77 ], [ %13, %74 ], [ %13, %71 ], [ %13, %68 ], [ %13, %63 ], [ %13, %60 ], [ %13, %57 ], [ %13, %54 ], [ %13, %51 ], [ %13, %46 ], [ %13, %43 ], [ %13, %40 ], [ %13, %37 ], [ %13, %34 ], [ %13, %29 ], [ %13, %26 ], [ %13, %23 ], [ %13, %18 ], [ %13, %15 ], [ %13, %12 ], [ null, %7 ], [ null, %4 ], [ null, %0 ], [ %13, %88 ]
  %.030 = phi ptr [ %16, %85 ], [ %16, %80 ], [ %16, %77 ], [ %16, %74 ], [ %16, %71 ], [ %16, %68 ], [ %16, %63 ], [ %16, %60 ], [ %16, %57 ], [ %16, %54 ], [ %16, %51 ], [ %16, %46 ], [ %16, %43 ], [ %16, %40 ], [ %16, %37 ], [ %16, %34 ], [ %16, %29 ], [ %16, %26 ], [ %16, %23 ], [ %16, %18 ], [ %16, %15 ], [ null, %12 ], [ null, %7 ], [ null, %4 ], [ null, %0 ], [ %16, %88 ]
  %.0 = phi i32 [ 0, %85 ], [ 0, %80 ], [ 0, %77 ], [ 0, %74 ], [ 0, %71 ], [ 0, %68 ], [ 0, %63 ], [ 0, %60 ], [ 0, %57 ], [ 0, %54 ], [ 0, %51 ], [ 0, %46 ], [ 0, %43 ], [ 0, %40 ], [ 0, %37 ], [ 0, %34 ], [ 0, %29 ], [ 0, %26 ], [ 0, %23 ], [ 0, %18 ], [ 0, %15 ], [ 0, %12 ], [ 0, %7 ], [ 0, %4 ], [ 0, %0 ], [ %spec.select, %88 ]
  call void @BN_free(ptr noundef %2) #8
  call void @BN_free(ptr noundef %.032) #8
  call void @BN_free(ptr noundef %.031) #8
  call void @BN_free(ptr noundef %.030) #8
  call void @llvm.lifetime.end.p0(i64 2, ptr nonnull %1) #8
  ret i32 %.0
}